; Function Attrs: mustprogress uwtable
define hidden void @_ZNK15model_converter11display_addERSoR11ast_managerP9func_declP4expr(ptr nocapture noundef nonnull readonly align 8 dereferenceable(25) %this, ptr noundef nonnull align 8 dereferenceable(8) %out, ptr noundef nonnull align 8 dereferenceable(976) %m, ptr noundef %f, ptr noundef %e) local_unnamed_addr #3 align 2 personality ptr @__gxx_personality_v0 {
entry:
  %dbgenv = alloca %class.smt2_pp_environment_dbg, align 8
  call void @_ZN23smt2_pp_environment_dbgC2ER11ast_manager(ptr noundef nonnull align 8 dereferenceable(640) %dbgenv, ptr noundef nonnull align 8 dereferenceable(976) %m)
  %m_env = getelementptr inbounds i8, ptr %this, i64 16
  %0 = load ptr, ptr %m_env, align 8
  %tobool.not = icmp eq ptr %0, null
  %spec.select = select i1 %tobool.not, ptr %dbgenv, ptr %0
  invoke void @_ZN15model_converter11display_addERSoR19smt2_pp_environmentR11ast_managerP9func_declP4expr(ptr noundef nonnull align 8 dereferenceable(8) %out, ptr noundef nonnull align 8 dereferenceable(56) %spec.select, ptr nonnull align 8 poison, ptr noundef %f, ptr noundef %e)
          to label %invoke.cont unwind label %lpad

invoke.cont:                                      ; preds = %entry
  call void @_ZN23smt2_pp_environment_dbgD2Ev(ptr noundef nonnull align 8 dereferenceable(640) %dbgenv) #16
  ret void

lpad:                                             ; preds = %entry
  %1 = landingpad { ptr, i32 }
          cleanup
  call void @_ZN23smt2_pp_environment_dbgD2Ev(ptr noundef nonnull align 8 dereferenceable(640) %dbgenv) #16
  resume { ptr, i32 } %1
}